; Function Attrs: mustprogress nofree norecurse nosync nounwind willreturn memory(read, inaccessiblemem: none) uwtable
define hidden noundef i32 @_ZN4cvc58internal6theory2uf20CardinalityExtension9SortModel13getNumRegionsEv(ptr noundef nonnull readonly align 8 captures(none) dereferenceable(928) %0) local_unnamed_addr #17 align 2 {
  %2 = getelementptr inbounds nuw i8, ptr %0, i64 232
  %3 = load i64, ptr %2, align 8, !tbaa !127
  %4 = trunc i64 %3 to i32
  %5 = icmp sgt i32 %4, 0
  br i1 %5, label %.lr.ph, label %._crit_edge

.lr.ph:                                           ; preds = %1
  %6 = getelementptr inbounds nuw i8, ptr %0, i64 240
  %7 = load ptr, ptr %6, align 8, !tbaa !205
  %wide.trip.count = and i64 %3, 2147483647
  br label %8

._crit_edge:                                      ; preds = %8, %1
  %.05.lcssa = phi i32 [ 0, %1 ], [ %spec.select, %8 ]
  ret i32 %.05.lcssa

8:                                                ; preds = %.lr.ph, %8
  %indvars.iv = phi i64 [ 0, %.lr.ph ], [ %indvars.iv.next, %8 ]
  %.056 = phi i32 [ 0, %.lr.ph ], [ %spec.select, %8 ]
  %9 = getelementptr inbounds nuw ptr, ptr %7, i64 %indvars.iv
  %10 = load ptr, ptr %9, align 8, !tbaa !206
  %11 = getelementptr inbounds nuw i8, ptr %10, i64 568
  %12 = load i8, ptr %11, align 1, !tbaa !140, !range !141, !noundef !142
  %13 = zext nneg i8 %12 to i32
  %spec.select = add nuw nsw i32 %.056, %13
  %indvars.iv.next = add nuw nsw i64 %indvars.iv, 1
  %exitcond.not = icmp eq i64 %indvars.iv.next, %wide.trip.count
  br i1 %exitcond.not, label %._crit_edge, label %8, !llvm.loop !640
}